; Function Attrs: nounwind uwtable
define dso_local noundef i32 @acct_gather_filesystem_g_conf_options(ptr noundef %0, ptr noundef %1) local_unnamed_addr #0 {
  %3 = load i32, ptr @plugin_inited, align 4
  %4 = icmp eq i32 %3, 1
  br i1 %4, label %7, label %5

5:                                                ; preds = %2
  %6 = load ptr, ptr getelementptr inbounds nuw (i8, ptr @ops, i64 8), align 8
  tail call void %6(ptr noundef %0, ptr noundef %1) #6
  br label %7

7:                                                ; preds = %2, %5
  ret i32 0
}